target datalayout = "e-m:e-p270:32:32-p271:32:32-p272:64:64-i64:64-i128:128-f80:128-n8:16:32:64-S128"
target triple = "x86_64-pc-linux-gnu"

%struct.Ivy_Man_t_ = type { ptr, ptr, ptr, ptr, ptr, %struct.Ivy_Obj_t_, [8 x i32], i32, i32, ptr, i32, i32, i32, i32, ptr, i32, ptr, ptr, ptr, i32, ptr, ptr, ptr, i64, i64 }
%struct.Ivy_Obj_t_ = type { i32, i32, i32, i32, ptr, ptr, ptr, ptr, ptr, ptr, ptr, ptr }
%struct.Ivy_FraigMan_t_ = type { ptr, i64, i64, ptr, ptr, i32, ptr, ptr, i32, ptr, ptr, %struct.Ivy_FraigList_t_, %struct.Ivy_FraigList_t_, i32, ptr, i32, ptr, ptr, i32, i32, i32, i32, i32, i32, i32, i32, i32, i32, i32, i32, i32, i64, i64, i64, i64, i64, i64, i64, i64, i64, i64 }
%struct.Ivy_FraigList_t_ = type { ptr, ptr, i32 }
%struct.Ivy_FraigSim_t_ = type { i32, ptr, ptr, ptr, [0 x i32] }
%struct.Vec_Ptr_t_ = type { i32, i32, ptr }

; Function Attrs: inlinehint nounwind uwtable
define internal i32 @Ivy_InfoHasBit(ptr noundef %0, i32 noundef %1) #4 {
  %3 = alloca ptr, align 8
  %4 = alloca i32, align 4
  store ptr %0, ptr %3, align 8, !tbaa !139
  store i32 %1, ptr %4, align 4, !tbaa !44
  %5 = load ptr, ptr %3, align 8, !tbaa !139
  %6 = load i32, ptr %4, align 4, !tbaa !44
  %7 = ashr i32 %6, 5
  %8 = sext i32 %7 to i64
  %9 = getelementptr inbounds i32, ptr %5, i64 %8
  %10 = load i32, ptr %9, align 4, !tbaa !44
  %11 = load i32, ptr %4, align 4, !tbaa !44
  %12 = and i32 %11, 31
  %13 = shl i32 1, %12
  %14 = and i32 %10, %13
  %15 = icmp ugt i32 %14, 0
  %16 = zext i1 %15 to i32
  ret i32 %16
}

; Function Attrs: inlinehint nounwind uwtable
define internal i32 @Ivy_ManPiNum(ptr noundef %0) #4 {
  %2 = alloca ptr, align 8
  store ptr %0, ptr %2, align 8, !tbaa !27
  %3 = load ptr, ptr %2, align 8, !tbaa !27
  %4 = getelementptr inbounds nuw %struct.Ivy_Man_t_, ptr %3, i32 0, i32 6
  %5 = getelementptr inbounds [8 x i32], ptr %4, i64 0, i64 1
  %6 = load i32, ptr %5, align 4, !tbaa !44
  ret i32 %6
}

; Function Attrs: inlinehint nounwind uwtable
define internal ptr @Ivy_ObjSim(ptr noundef %0) #4 {
  %2 = alloca ptr, align 8
  store ptr %0, ptr %2, align 8, !tbaa !72
  %3 = load ptr, ptr %2, align 8, !tbaa !72
  %4 = getelementptr inbounds nuw %struct.Ivy_Obj_t_, ptr %3, i32 0, i32 6
  %5 = load ptr, ptr %4, align 8, !tbaa !126
  ret ptr %5
}

; Function Attrs: inlinehint nounwind uwtable
define internal ptr @Ivy_Regular(ptr noundef %0) #4 {
  %2 = alloca ptr, align 8
  store ptr %0, ptr %2, align 8, !tbaa !72
  %3 = load ptr, ptr %2, align 8, !tbaa !72
  %4 = ptrtoint ptr %3 to i64
  %5 = and i64 %4, -2
  %6 = inttoptr i64 %5 to ptr
  ret ptr %6
}

; Function Attrs: nounwind uwtable
define void @Ivy_FraigCheckOutputSimsSavePattern(ptr noundef %0, ptr noundef %1) #0 {
  %3 = alloca ptr, align 8
  %4 = alloca ptr, align 8
  %5 = alloca ptr, align 8
  %6 = alloca i32, align 4
  %7 = alloca i32, align 4
  %8 = alloca i32, align 4
  %9 = alloca ptr, align 8
  store ptr %0, ptr %3, align 8, !tbaa !60
  store ptr %1, ptr %4, align 8, !tbaa !72
  call void @llvm.lifetime.start.p0(i64 8, ptr %5) #12
  call void @llvm.lifetime.start.p0(i64 4, ptr %6) #12
  call void @llvm.lifetime.start.p0(i64 4, ptr %7) #12
  call void @llvm.lifetime.start.p0(i64 4, ptr %8) #12
  call void @llvm.lifetime.start.p0(i64 8, ptr %9) #12
  %10 = load ptr, ptr %4, align 8, !tbaa !72
  %11 = call ptr @Ivy_ObjSim(ptr noundef %10)
  store ptr %11, ptr %5, align 8, !tbaa !102
  store i32 0, ptr %6, align 4, !tbaa !44
  br label %12

12:                                               ; preds = %28, %2
  %13 = load i32, ptr %6, align 4, !tbaa !44
  %14 = load ptr, ptr %3, align 8, !tbaa !60
  %15 = getelementptr inbounds nuw %struct.Ivy_FraigMan_t_, ptr %14, i32 0, i32 5
  %16 = load i32, ptr %15, align 8, !tbaa !100
  %17 = icmp slt i32 %13, %16
  br i1 %17, label %18, label %31

18:                                               ; preds = %12
  %19 = load ptr, ptr %5, align 8, !tbaa !102
  %20 = getelementptr inbounds nuw %struct.Ivy_FraigSim_t_, ptr %19, i32 0, i32 4
  %21 = load i32, ptr %6, align 4, !tbaa !44
  %22 = sext i32 %21 to i64
  %23 = getelementptr inbounds [0 x i32], ptr %20, i64 0, i64 %22
  %24 = load i32, ptr %23, align 4, !tbaa !44
  %25 = icmp ne i32 %24, 0
  br i1 %25, label %26, label %27

26:                                               ; preds = %18
  br label %31

27:                                               ; preds = %18
  br label %28

28:                                               ; preds = %27
  %29 = load i32, ptr %6, align 4, !tbaa !44
  %30 = add nsw i32 %29, 1
  store i32 %30, ptr %6, align 4, !tbaa !44
  br label %12, !llvm.loop !185

31:                                               ; preds = %26, %12
  store i32 0, ptr %7, align 4, !tbaa !44
  br label %32

32:                                               ; preds = %48, %31
  %33 = load i32, ptr %7, align 4, !tbaa !44
  %34 = icmp slt i32 %33, 32
  br i1 %34, label %35, label %51

35:                                               ; preds = %32
  %36 = load ptr, ptr %5, align 8, !tbaa !102
  %37 = getelementptr inbounds nuw %struct.Ivy_FraigSim_t_, ptr %36, i32 0, i32 4
  %38 = load i32, ptr %6, align 4, !tbaa !44
  %39 = sext i32 %38 to i64
  %40 = getelementptr inbounds [0 x i32], ptr %37, i64 0, i64 %39
  %41 = load i32, ptr %40, align 4, !tbaa !44
  %42 = load i32, ptr %7, align 4, !tbaa !44
  %43 = shl i32 1, %42
  %44 = and i32 %41, %43
  %45 = icmp ne i32 %44, 0
  br i1 %45, label %46, label %47

46:                                               ; preds = %35
  br label %51

47:                                               ; preds = %35
  br label %48

48:                                               ; preds = %47
  %49 = load i32, ptr %7, align 4, !tbaa !44
  %50 = add nsw i32 %49, 1
  store i32 %50, ptr %7, align 4, !tbaa !44
  br label %32, !llvm.loop !186

51:                                               ; preds = %46, %32
  %52 = load i32, ptr %6, align 4, !tbaa !44
  %53 = mul nsw i32 %52, 32
  %54 = load i32, ptr %7, align 4, !tbaa !44
  %55 = add nsw i32 %53, %54
  store i32 %55, ptr %8, align 4, !tbaa !44
  %56 = load ptr, ptr %3, align 8, !tbaa !60
  %57 = getelementptr inbounds nuw %struct.Ivy_FraigMan_t_, ptr %56, i32 0, i32 4
  %58 = load ptr, ptr %57, align 8, !tbaa !73
  %59 = call i32 @Ivy_ManPiNum(ptr noundef %58)
  %60 = sext i32 %59 to i64
  %61 = mul i64 4, %60
  %62 = call noalias ptr @malloc(i64 noundef %61) #13
  store ptr %62, ptr %9, align 8, !tbaa !139
  store i32 0, ptr %6, align 4, !tbaa !44
  br label %63

63:                                               ; preds = %93, %51
  %64 = load i32, ptr %6, align 4, !tbaa !44
  %65 = load ptr, ptr %3, align 8, !tbaa !60
  %66 = getelementptr inbounds nuw %struct.Ivy_FraigMan_t_, ptr %65, i32 0, i32 3
  %67 = load ptr, ptr %66, align 8, !tbaa !70
  %68 = getelementptr inbounds nuw %struct.Ivy_Man_t_, ptr %67, i32 0, i32 0
  %69 = load ptr, ptr %68, align 8, !tbaa !137
  %70 = call i32 @Vec_PtrSize(ptr noundef %69)
  %71 = icmp slt i32 %64, %70
  br i1 %71, label %72, label %80

72:                                               ; preds = %63
  %73 = load ptr, ptr %3, align 8, !tbaa !60
  %74 = getelementptr inbounds nuw %struct.Ivy_FraigMan_t_, ptr %73, i32 0, i32 3
  %75 = load ptr, ptr %74, align 8, !tbaa !70
  %76 = getelementptr inbounds nuw %struct.Ivy_Man_t_, ptr %75, i32 0, i32 0
  %77 = load ptr, ptr %76, align 8, !tbaa !137
  %78 = load i32, ptr %6, align 4, !tbaa !44
  %79 = call ptr @Vec_PtrEntry(ptr noundef %77, i32 noundef %78)
  store ptr %79, ptr %4, align 8, !tbaa !72
  br label %80

80:                                               ; preds = %72, %63
  %81 = phi i1 [ false, %63 ], [ true, %72 ]
  br i1 %81, label %82, label %96

82:                                               ; preds = %80
  %83 = load ptr, ptr %4, align 8, !tbaa !72
  %84 = call ptr @Ivy_ObjSim(ptr noundef %83)
  %85 = getelementptr inbounds nuw %struct.Ivy_FraigSim_t_, ptr %84, i32 0, i32 4
  %86 = getelementptr inbounds [0 x i32], ptr %85, i64 0, i64 0
  %87 = load i32, ptr %8, align 4, !tbaa !44
  %88 = call i32 @Ivy_InfoHasBit(ptr noundef %86, i32 noundef %87)
  %89 = load ptr, ptr %9, align 8, !tbaa !139
  %90 = load i32, ptr %6, align 4, !tbaa !44
  %91 = sext i32 %90 to i64
  %92 = getelementptr inbounds i32, ptr %89, i64 %91
  store i32 %88, ptr %92, align 4, !tbaa !44
  br label %93

93:                                               ; preds = %82
  %94 = load i32, ptr %6, align 4, !tbaa !44
  %95 = add nsw i32 %94, 1
  store i32 %95, ptr %6, align 4, !tbaa !44
  br label %63, !llvm.loop !187

96:                                               ; preds = %80
  %97 = load ptr, ptr %9, align 8, !tbaa !139
  %98 = load ptr, ptr %3, align 8, !tbaa !60
  %99 = getelementptr inbounds nuw %struct.Ivy_FraigMan_t_, ptr %98, i32 0, i32 4
  %100 = load ptr, ptr %99, align 8, !tbaa !73
  %101 = getelementptr inbounds nuw %struct.Ivy_Man_t_, ptr %100, i32 0, i32 16
  store ptr %97, ptr %101, align 8, !tbaa !53
  call void @llvm.lifetime.end.p0(i64 8, ptr %9) #12
  call void @llvm.lifetime.end.p0(i64 4, ptr %8) #12
  call void @llvm.lifetime.end.p0(i64 4, ptr %7) #12
  call void @llvm.lifetime.end.p0(i64 4, ptr %6) #12
  call void @llvm.lifetime.end.p0(i64 8, ptr %5) #12
  ret void
}

; Function Attrs: nounwind uwtable
define i32 @Ivy_NodeHasZeroSim(ptr noundef %0, ptr noundef %1) #0 {
  %3 = alloca i32, align 4
  %4 = alloca ptr, align 8
  %5 = alloca ptr, align 8
  %6 = alloca ptr, align 8
  %7 = alloca i32, align 4
  %8 = alloca i32, align 4
  store ptr %0, ptr %4, align 8, !tbaa !60
  store ptr %1, ptr %5, align 8, !tbaa !72
  call void @llvm.lifetime.start.p0(i64 8, ptr %6) #12
  call void @llvm.lifetime.start.p0(i64 4, ptr %7) #12
  %9 = load ptr, ptr %5, align 8, !tbaa !72
  %10 = call ptr @Ivy_ObjSim(ptr noundef %9)
  store ptr %10, ptr %6, align 8, !tbaa !102
  store i32 0, ptr %7, align 4, !tbaa !44
  br label %11

11:                                               ; preds = %27, %2
  %12 = load i32, ptr %7, align 4, !tbaa !44
  %13 = load ptr, ptr %4, align 8, !tbaa !60
  %14 = getelementptr inbounds nuw %struct.Ivy_FraigMan_t_, ptr %13, i32 0, i32 5
  %15 = load i32, ptr %14, align 8, !tbaa !100
  %16 = icmp slt i32 %12, %15
  br i1 %16, label %17, label %30

17:                                               ; preds = %11
  %18 = load ptr, ptr %6, align 8, !tbaa !102
  %19 = getelementptr inbounds nuw %struct.Ivy_FraigSim_t_, ptr %18, i32 0, i32 4
  %20 = load i32, ptr %7, align 4, !tbaa !44
  %21 = sext i32 %20 to i64
  %22 = getelementptr inbounds [0 x i32], ptr %19, i64 0, i64 %21
  %23 = load i32, ptr %22, align 4, !tbaa !44
  %24 = icmp ne i32 %23, 0
  br i1 %24, label %25, label %26

25:                                               ; preds = %17
  store i32 0, ptr %3, align 4
  store i32 1, ptr %8, align 4
  br label %31

26:                                               ; preds = %17
  br label %27

27:                                               ; preds = %26
  %28 = load i32, ptr %7, align 4, !tbaa !44
  %29 = add nsw i32 %28, 1
  store i32 %29, ptr %7, align 4, !tbaa !44
  br label %11, !llvm.loop !142

30:                                               ; preds = %11
  store i32 1, ptr %3, align 4
  store i32 1, ptr %8, align 4
  br label %31

31:                                               ; preds = %30, %25
  call void @llvm.lifetime.end.p0(i64 4, ptr %7) #12
  call void @llvm.lifetime.end.p0(i64 8, ptr %6) #12
  %32 = load i32, ptr %3, align 4
  ret i32 %32
}

; Function Attrs: inlinehint nounwind uwtable
define internal ptr @Ivy_ObjFanin0(ptr noundef %0) #4 {
  %2 = alloca ptr, align 8
  store ptr %0, ptr %2, align 8, !tbaa !72
  %3 = load ptr, ptr %2, align 8, !tbaa !72
  %4 = getelementptr inbounds nuw %struct.Ivy_Obj_t_, ptr %3, i32 0, i32 4
  %5 = load ptr, ptr %4, align 8, !tbaa !161
  %6 = call ptr @Ivy_Regular(ptr noundef %5)
  ret ptr %6
}

; Function Attrs: inlinehint nounwind uwtable
define internal ptr @Vec_PtrEntry(ptr noundef %0, i32 noundef %1) #4 {
  %3 = alloca ptr, align 8
  %4 = alloca i32, align 4
  store ptr %0, ptr %3, align 8, !tbaa !130
  store i32 %1, ptr %4, align 4, !tbaa !44
  %5 = load ptr, ptr %3, align 8, !tbaa !130
  %6 = getelementptr inbounds nuw %struct.Vec_Ptr_t_, ptr %5, i32 0, i32 2
  %7 = load ptr, ptr %6, align 8, !tbaa !133
  %8 = load i32, ptr %4, align 4, !tbaa !44
  %9 = sext i32 %8 to i64
  %10 = getelementptr inbounds ptr, ptr %7, i64 %9
  %11 = load ptr, ptr %10, align 8, !tbaa !22
  ret ptr %11
}

; Function Attrs: inlinehint nounwind uwtable
define internal i32 @Vec_PtrSize(ptr noundef %0) #4 {
  %2 = alloca ptr, align 8
  store ptr %0, ptr %2, align 8, !tbaa !130
  %3 = load ptr, ptr %2, align 8, !tbaa !130
  %4 = getelementptr inbounds nuw %struct.Vec_Ptr_t_, ptr %3, i32 0, i32 1
  %5 = load i32, ptr %4, align 4, !tbaa !131
  ret i32 %5
}

; Function Attrs: nounwind uwtable
define i32 @Ivy_FraigCheckOutputSims(ptr noundef %0) #0 {
  %2 = alloca i32, align 4
  %3 = alloca ptr, align 8
  %4 = alloca ptr, align 8
  %5 = alloca i32, align 4
  %6 = alloca i32, align 4
  store ptr %0, ptr %3, align 8, !tbaa !60
  call void @llvm.lifetime.start.p0(i64 8, ptr %4) #12
  call void @llvm.lifetime.start.p0(i64 4, ptr %5) #12
  store i32 0, ptr %5, align 4, !tbaa !44
  br label %7

7:                                                ; preds = %37, %1
  %8 = load i32, ptr %5, align 4, !tbaa !44
  %9 = load ptr, ptr %3, align 8, !tbaa !60
  %10 = getelementptr inbounds nuw %struct.Ivy_FraigMan_t_, ptr %9, i32 0, i32 3
  %11 = load ptr, ptr %10, align 8, !tbaa !70
  %12 = getelementptr inbounds nuw %struct.Ivy_Man_t_, ptr %11, i32 0, i32 1
  %13 = load ptr, ptr %12, align 8, !tbaa !76
  %14 = call i32 @Vec_PtrSize(ptr noundef %13)
  %15 = icmp slt i32 %8, %14
  br i1 %15, label %16, label %24

16:                                               ; preds = %7
  %17 = load ptr, ptr %3, align 8, !tbaa !60
  %18 = getelementptr inbounds nuw %struct.Ivy_FraigMan_t_, ptr %17, i32 0, i32 3
  %19 = load ptr, ptr %18, align 8, !tbaa !70
  %20 = getelementptr inbounds nuw %struct.Ivy_Man_t_, ptr %19, i32 0, i32 1
  %21 = load ptr, ptr %20, align 8, !tbaa !76
  %22 = load i32, ptr %5, align 4, !tbaa !44
  %23 = call ptr @Vec_PtrEntry(ptr noundef %21, i32 noundef %22)
  store ptr %23, ptr %4, align 8, !tbaa !72
  br label %24

24:                                               ; preds = %16, %7
  %25 = phi i1 [ false, %7 ], [ true, %16 ]
  br i1 %25, label %26, label %40

26:                                               ; preds = %24
  %27 = load ptr, ptr %3, align 8, !tbaa !60
  %28 = load ptr, ptr %4, align 8, !tbaa !72
  %29 = call ptr @Ivy_ObjFanin0(ptr noundef %28)
  %30 = call i32 @Ivy_NodeHasZeroSim(ptr noundef %27, ptr noundef %29)
  %31 = icmp ne i32 %30, 0
  br i1 %31, label %36, label %32

32:                                               ; preds = %26
  %33 = load ptr, ptr %3, align 8, !tbaa !60
  %34 = load ptr, ptr %4, align 8, !tbaa !72
  %35 = call ptr @Ivy_ObjFanin0(ptr noundef %34)
  call void @Ivy_FraigCheckOutputSimsSavePattern(ptr noundef %33, ptr noundef %35)
  store i32 1, ptr %2, align 4
  store i32 1, ptr %6, align 4
  br label %41

36:                                               ; preds = %26
  br label %37

37:                                               ; preds = %36
  %38 = load i32, ptr %5, align 4, !tbaa !44
  %39 = add nsw i32 %38, 1
  store i32 %39, ptr %5, align 4, !tbaa !44
  br label %7, !llvm.loop !188

40:                                               ; preds = %24
  store i32 0, ptr %2, align 4
  store i32 1, ptr %6, align 4
  br label %41

41:                                               ; preds = %40, %32
  call void @llvm.lifetime.end.p0(i64 4, ptr %5) #12
  call void @llvm.lifetime.end.p0(i64 8, ptr %4) #12
  %42 = load i32, ptr %2, align 4
  ret i32 %42
}