; Function Attrs: nofree nounwind uwtable
define range(i32 0, 2) i32 @Ivy_FraigCheckOutputSims(ptr noundef readonly captures(none) %0) local_unnamed_addr #15 {
  %2 = getelementptr inbounds nuw i8, ptr %0, i64 24
  %3 = load ptr, ptr %2, align 8, !tbaa !86
  %4 = getelementptr inbounds nuw i8, ptr %3, i64 8
  %5 = load ptr, ptr %4, align 8, !tbaa !46
  %6 = getelementptr i8, ptr %5, i64 4
  %.val = load i32, ptr %6, align 4, !tbaa !47
  %7 = icmp sgt i32 %.val, 0
  br i1 %7, label %.lr.ph, label %.critedge

.lr.ph:                                           ; preds = %1
  %8 = getelementptr i8, ptr %5, i64 8
  %.val10 = load ptr, ptr %8, align 8, !tbaa !49
  %9 = getelementptr inbounds nuw i8, ptr %0, i64 40
  %10 = load i32, ptr %9, align 8, !tbaa !96
  %11 = icmp sgt i32 %10, 0
  %wide.trip.count.i = zext nneg i32 %10 to i64
  br i1 %11, label %.lr.ph.preheader.i.us.preheader, label %.critedge

.lr.ph.preheader.i.us.preheader:                  ; preds = %.lr.ph
  %wide.trip.count = zext nneg i32 %.val to i64
  br label %.lr.ph.preheader.i.us

.lr.ph.preheader.i.us:                            ; preds = %.lr.ph.preheader.i.us.preheader, %.loopexit.us
  %indvars.iv = phi i64 [ 0, %.lr.ph.preheader.i.us.preheader ], [ %indvars.iv.next, %.loopexit.us ]
  %12 = getelementptr inbounds nuw ptr, ptr %.val10, i64 %indvars.iv
  %13 = load ptr, ptr %12, align 8, !tbaa !51
  %14 = getelementptr i8, ptr %13, i64 16
  %.val12.us = load ptr, ptr %14, align 8, !tbaa !52
  %15 = ptrtoint ptr %.val12.us to i64
  %16 = and i64 %15, -2
  %17 = inttoptr i64 %16 to ptr
  %18 = getelementptr i8, ptr %17, i64 32
  %.val.i.us = load ptr, ptr %18, align 8, !tbaa !103
  %19 = getelementptr inbounds nuw i8, ptr %.val.i.us, i64 32
  br label %.lr.ph.i.us

.lr.ph.i.us:                                      ; preds = %22, %.lr.ph.preheader.i.us
  %indvars.iv.i.us = phi i64 [ 0, %.lr.ph.preheader.i.us ], [ %indvars.iv.next.i.us, %22 ]
  %20 = getelementptr inbounds nuw [0 x i32], ptr %19, i64 0, i64 %indvars.iv.i.us
  %21 = load i32, ptr %20, align 4, !tbaa !38
  %.not.i.us = icmp eq i32 %21, 0
  br i1 %.not.i.us, label %22, label %.lr.ph.i15

22:                                               ; preds = %.lr.ph.i.us
  %indvars.iv.next.i.us = add nuw nsw i64 %indvars.iv.i.us, 1
  %exitcond.not.i.us = icmp eq i64 %indvars.iv.next.i.us, %wide.trip.count.i
  br i1 %exitcond.not.i.us, label %.loopexit.us, label %.lr.ph.i.us, !llvm.loop !157

.loopexit.us:                                     ; preds = %22
  %indvars.iv.next = add nuw nsw i64 %indvars.iv, 1
  %exitcond.not = icmp eq i64 %indvars.iv.next, %wide.trip.count
  br i1 %exitcond.not, label %.critedge, label %.lr.ph.preheader.i.us, !llvm.loop !196

.lr.ph.i15:                                       ; preds = %.lr.ph.i.us, %25
  %indvars.iv.i16 = phi i64 [ %indvars.iv.next.i18, %25 ], [ 0, %.lr.ph.i.us ]
  %23 = getelementptr inbounds nuw [0 x i32], ptr %19, i64 0, i64 %indvars.iv.i16
  %24 = load i32, ptr %23, align 4, !tbaa !38
  %.not.i17 = icmp eq i32 %24, 0
  br i1 %.not.i17, label %25, label %._crit_edge.loopexit.split.loop.exit.i

25:                                               ; preds = %.lr.ph.i15
  %indvars.iv.next.i18 = add nuw nsw i64 %indvars.iv.i16, 1
  %exitcond.not.i19 = icmp eq i64 %indvars.iv.next.i18, %wide.trip.count.i
  br i1 %exitcond.not.i19, label %._crit_edge.i, label %.lr.ph.i15, !llvm.loop !193

._crit_edge.loopexit.split.loop.exit.i:           ; preds = %.lr.ph.i15
  %26 = trunc nuw nsw i64 %indvars.iv.i16 to i32
  %.pre = and i64 %indvars.iv.i16, 4294967295
  br label %._crit_edge.i

._crit_edge.i:                                    ; preds = %25, %._crit_edge.loopexit.split.loop.exit.i
  %.pre-phi = phi i64 [ %.pre, %._crit_edge.loopexit.split.loop.exit.i ], [ %wide.trip.count.i, %25 ]
  %.0.lcssa.i = phi i32 [ %26, %._crit_edge.loopexit.split.loop.exit.i ], [ %10, %25 ]
  %27 = getelementptr inbounds nuw [0 x i32], ptr %19, i64 0, i64 %.pre-phi
  %28 = load i32, ptr %27, align 4, !tbaa !38
  br label %29

29:                                               ; preds = %32, %._crit_edge.i
  %.02433.i = phi i32 [ 0, %._crit_edge.i ], [ %33, %32 ]
  %30 = shl nuw i32 1, %.02433.i
  %31 = and i32 %30, %28
  %.not25.i = icmp eq i32 %31, 0
  br i1 %.not25.i, label %32, label %34

32:                                               ; preds = %29
  %33 = add nuw nsw i32 %.02433.i, 1
  %exitcond39.not.i = icmp eq i32 %33, 32
  br i1 %exitcond39.not.i, label %34, label %29, !llvm.loop !194

34:                                               ; preds = %32, %29
  %.024.lcssa.i = phi i32 [ %.02433.i, %29 ], [ 32, %32 ]
  %35 = getelementptr inbounds nuw i8, ptr %0, i64 32
  %36 = load ptr, ptr %35, align 8, !tbaa !69
  %37 = getelementptr i8, ptr %36, i64 124
  %.val27.i = load i32, ptr %37, align 4, !tbaa !38
  %38 = sext i32 %.val27.i to i64
  %39 = shl nsw i64 %38, 2
  %40 = tail call noalias ptr @malloc(i64 noundef %39) #27
  %41 = load ptr, ptr %3, align 8, !tbaa !111
  %42 = getelementptr i8, ptr %41, i64 4
  %.val34.i = load i32, ptr %42, align 4, !tbaa !47
  %43 = icmp sgt i32 %.val34.i, 0
  br i1 %43, label %.lr.ph37.i, label %Ivy_FraigCheckOutputSimsSavePattern.exit

.lr.ph37.i:                                       ; preds = %34
  %44 = getelementptr i8, ptr %41, i64 8
  %.val26.i = load ptr, ptr %44, align 8, !tbaa !49
  %45 = lshr i32 %.024.lcssa.i, 5
  %46 = add nuw i32 %45, %.0.lcssa.i
  %47 = and i32 %46, 134217727
  %48 = zext nneg i32 %47 to i64
  %49 = and i32 %.024.lcssa.i, 31
  %50 = zext nneg i32 %.val34.i to i64
  br label %51

51:                                               ; preds = %51, %.lr.ph37.i
  %indvars.iv40.i = phi i64 [ 0, %.lr.ph37.i ], [ %indvars.iv.next41.i, %51 ]
  %52 = getelementptr inbounds nuw ptr, ptr %.val26.i, i64 %indvars.iv40.i
  %53 = load ptr, ptr %52, align 8, !tbaa !51
  %54 = getelementptr i8, ptr %53, i64 32
  %.val28.i = load ptr, ptr %54, align 8, !tbaa !103
  %55 = getelementptr inbounds nuw i8, ptr %.val28.i, i64 32
  %56 = getelementptr inbounds nuw i32, ptr %55, i64 %48
  %57 = load i32, ptr %56, align 4, !tbaa !38
  %58 = lshr i32 %57, %49
  %59 = and i32 %58, 1
  %60 = getelementptr inbounds nuw i32, ptr %40, i64 %indvars.iv40.i
  store i32 %59, ptr %60, align 4, !tbaa !38
  %indvars.iv.next41.i = add nuw nsw i64 %indvars.iv40.i, 1
  %exitcond33.not = icmp eq i64 %indvars.iv.next41.i, %50
  br i1 %exitcond33.not, label %Ivy_FraigCheckOutputSimsSavePattern.exit, label %51, !llvm.loop !195

Ivy_FraigCheckOutputSimsSavePattern.exit:         ; preds = %51, %34
  %61 = getelementptr inbounds nuw i8, ptr %36, i64 200
  store ptr %40, ptr %61, align 8, !tbaa !39
  br label %.critedge

.critedge:                                        ; preds = %.loopexit.us, %.lr.ph, %1, %Ivy_FraigCheckOutputSimsSavePattern.exit
  %.09 = phi i32 [ 1, %Ivy_FraigCheckOutputSimsSavePattern.exit ], [ 0, %1 ], [ 0, %.lr.ph ], [ 0, %.loopexit.us ]
  ret i32 %.09
}